; Function Attrs: mustprogress uwtable
define dso_local noundef nonnull align 8 dereferenceable(56) ptr @_ZN8V3Number9opSelIntoERKS_ii(ptr noundef nonnull returned align 8 dereferenceable(56) %0, ptr noundef nonnull align 8 dereferenceable(56) %1, i32 noundef %2, i32 noundef %3) local_unnamed_addr #3 align 2 {
  %.not = icmp eq ptr %0, %1
  br i1 %.not, label %5, label %9, !prof !134

5:                                                ; preds = %4
  %6 = tail call noundef nonnull align 8 dereferenceable(112) ptr @_ZN7V3Error19v3errorPrepFileLineB5cxx11E11V3ErrorCodePKci(i8 4, ptr noundef nonnull @.str.15, i32 noundef 2341)
  %7 = tail call noundef nonnull align 8 dereferenceable(112) ptr @_ZN7V3Error10v3errorStrB5cxx11Ev()
  %8 = tail call noundef nonnull align 8 dereferenceable(8) ptr @_ZStlsISt11char_traitsIcEERSt13basic_ostreamIcT_ES5_PKc(ptr noundef nonnull align 8 dereferenceable(8) %7, ptr noundef nonnull @.str.51)
  tail call void @_ZNK8V3Number15v3errorEndFatalERKNSt7__cxx1119basic_ostringstreamIcSt11char_traitsIcESaIcEEE(ptr noundef nonnull align 8 dereferenceable(56) %0, ptr noundef nonnull align 8 dereferenceable(112) %8) #34
  unreachable

9:                                                ; preds = %4
  %10 = getelementptr inbounds nuw i8, ptr %1, i64 36
  %11 = load i8, ptr %10, align 4, !tbaa !40
  %.not17 = icmp eq i8 %11, 1
  br i1 %.not17, label %.preheader, label %17, !prof !41

.preheader:                                       ; preds = %9
  %12 = add nsw i32 %3, %2
  %13 = icmp sgt i32 %3, 0
  br i1 %13, label %.lr.ph, label %._crit_edge

.lr.ph:                                           ; preds = %.preheader
  %14 = getelementptr inbounds nuw i8, ptr %1, i64 32
  %15 = getelementptr inbounds nuw i8, ptr %0, i64 32
  %16 = getelementptr inbounds nuw i8, ptr %0, i64 36
  br label %23

17:                                               ; preds = %9
  %18 = tail call noundef nonnull align 8 dereferenceable(112) ptr @_ZN7V3Error19v3errorPrepFileLineB5cxx11E11V3ErrorCodePKci(i8 4, ptr noundef nonnull @.str.15, i32 noundef 2342)
  %19 = tail call noundef nonnull align 8 dereferenceable(112) ptr @_ZN7V3Error10v3errorStrB5cxx11Ev()
  %20 = tail call noundef nonnull align 8 dereferenceable(8) ptr @_ZStlsISt11char_traitsIcEERSt13basic_ostreamIcT_ES5_PKc(ptr noundef nonnull align 8 dereferenceable(8) %19, ptr noundef nonnull @.str.52)
  %21 = tail call noundef nonnull align 8 dereferenceable(8) ptr @_ZlsRSoRK8V3Number(ptr noundef nonnull align 8 dereferenceable(8) %20, ptr noundef nonnull align 8 dereferenceable(56) %1)
  %22 = tail call noundef nonnull align 8 dereferenceable(8) ptr @_ZStlsISt11char_traitsIcEERSt13basic_ostreamIcT_ES5_c(ptr noundef nonnull align 8 dereferenceable(8) %21, i8 noundef signext 34)
  tail call void @_ZNK8V3Number15v3errorEndFatalERKNSt7__cxx1119basic_ostringstreamIcSt11char_traitsIcESaIcEEE(ptr noundef nonnull align 8 dereferenceable(56) %0, ptr noundef nonnull align 8 dereferenceable(112) %22) #34
  unreachable

._crit_edge:                                      ; preds = %_ZN8V3Number6setBitEic.exit, %.preheader
  ret ptr %0

23:                                               ; preds = %.lr.ph, %_ZN8V3Number6setBitEic.exit
  %.020 = phi i32 [ %2, %.lr.ph ], [ %51, %_ZN8V3Number6setBitEic.exit ]
  %.01619 = phi i32 [ 0, %.lr.ph ], [ %50, %_ZN8V3Number6setBitEic.exit ]
  %24 = load i32, ptr %14, align 8, !tbaa !39
  %25 = icmp slt i32 %.01619, %24
  br i1 %25, label %26, label %28

26:                                               ; preds = %23
  %27 = tail call noundef signext i8 @_ZNK8V3Number5bitIsEi(ptr noundef nonnull align 8 dereferenceable(56) %1, i32 noundef %.01619)
  tail call void @_ZN8V3Number6setBitEic(ptr noundef nonnull align 8 dereferenceable(56) %0, i32 noundef %.020, i8 noundef signext %27)
  br label %_ZN8V3Number6setBitEic.exit

28:                                               ; preds = %23
  %29 = load i32, ptr %15, align 8, !tbaa !39
  %.not.i = icmp slt i32 %.020, %29
  br i1 %.not.i, label %30, label %_ZN8V3Number6setBitEic.exit

30:                                               ; preds = %28
  %31 = load i8, ptr %16, align 4, !tbaa !40
  %32 = add i8 %31, -1
  %spec.select.i.i.i = icmp ult i8 %32, 2
  br i1 %spec.select.i.i.i, label %_ZN12V3NumberData3numEv.exit.i, label %33, !prof !41

33:                                               ; preds = %30
  %34 = tail call noundef nonnull align 8 dereferenceable(112) ptr @_ZN7V3Error19v3errorPrepFileLineB5cxx11E11V3ErrorCodePKci(i8 4, ptr noundef nonnull @.str.95, i32 noundef 194)
  %35 = tail call noundef nonnull align 8 dereferenceable(112) ptr @_ZN7V3Error10v3errorStrB5cxx11Ev()
  %36 = tail call noundef nonnull align 8 dereferenceable(8) ptr @_ZStlsISt11char_traitsIcEERSt13basic_ostreamIcT_ES5_PKc(ptr noundef nonnull align 8 dereferenceable(8) %35, ptr noundef nonnull @.str.96)
  %37 = tail call noundef nonnull align 8 dereferenceable(8) ptr @_ZlsRSoRKN12V3NumberData16V3NumberDataTypeE(ptr noundef nonnull align 8 dereferenceable(8) %36, ptr noundef nonnull align 1 dereferenceable(1) %16)
  tail call void @_Z15v3errorEndFatalRNSt7__cxx1119basic_ostringstreamIcSt11char_traitsIcESaIcEEE(ptr noundef nonnull align 8 dereferenceable(112) %37) #34
  unreachable

_ZN12V3NumberData3numEv.exit.i:                   ; preds = %30
  %38 = and i32 %.020, 31
  %39 = shl nuw i32 1, %38
  %40 = icmp slt i32 %29, 129
  %41 = load ptr, ptr %0, align 8
  %spec.select.i.i = select i1 %40, ptr %0, ptr %41
  %42 = sdiv i32 %.020, 32
  %43 = sext i32 %42 to i64
  %44 = getelementptr inbounds %"struct.V3NumberData::ValueAndX", ptr %spec.select.i.i, i64 %43
  %45 = load i32, ptr %44, align 4, !tbaa !44
  %46 = or i32 %45, %39
  store i32 %46, ptr %44, align 4, !tbaa !44
  %47 = getelementptr inbounds nuw i8, ptr %44, i64 4
  %48 = load i32, ptr %47, align 4, !tbaa !124
  %49 = or i32 %48, %39
  store i32 %49, ptr %47, align 4, !tbaa !124
  br label %_ZN8V3Number6setBitEic.exit

_ZN8V3Number6setBitEic.exit:                      ; preds = %_ZN12V3NumberData3numEv.exit.i, %28, %26
  %50 = add nuw nsw i32 %.01619, 1
  %51 = add nsw i32 %.020, 1
  %52 = icmp slt i32 %51, %12
  br i1 %52, label %23, label %._crit_edge, !llvm.loop !351
}